; Function Attrs: mustprogress uwtable
define void @_ZN5arrow8internal8FileReadEiPhl(ptr dead_on_unwind noalias writable sret(%"class.arrow::Result.38") align 8 %0, i32 noundef %1, ptr noundef captures(none) %2, i64 noundef %3) local_unnamed_addr #3 {
  %5 = alloca %"class.arrow::Status", align 8
  %6 = icmp sgt i64 %3, 0
  br i1 %6, label %.lr.ph, label %.thread

.lr.ph:                                           ; preds = %4, %23
  %.01031 = phi ptr [ %.1, %23 ], [ %2, %4 ]
  %.02030 = phi i64 [ %.2, %23 ], [ 0, %4 ]
  %7 = sub nsw i64 %3, %.02030
  %.sroa.speculated = tail call i64 @llvm.smin.i64(i64 %7, i64 2147479552)
  %8 = tail call i64 @read(i32 noundef %1, ptr noundef %.01031, i64 noundef %.sroa.speculated)
  switch i64 %8, label %20 [
    i64 -1, label %9
    i64 0, label %.thread
  ]

9:                                                ; preds = %.lr.ph
  %10 = tail call ptr @__errno_location() #42
  %11 = load i32, ptr %10, align 4, !tbaa !38
  %12 = icmp eq i32 %11, 4
  br i1 %12, label %23, label %13, !llvm.loop !498

13:                                               ; preds = %9
  call void @llvm.lifetime.start.p0(i64 8, ptr nonnull %5) #38
  call void @_ZN5arrow8internal15StatusFromErrnoIJRA30_KcEEENS_6StatusEiNS_10StatusCodeEDpOT_(ptr dead_on_unwind nonnull writable sret(%"class.arrow::Status") align 8 %5, i32 noundef %11, i8 noundef signext 5, ptr noundef nonnull align 1 dereferenceable(30) @.str.18)
  call void @_ZN5arrow6ResultIlEC2ERKNS_6StatusE(ptr noundef nonnull align 8 dereferenceable(16) %0, ptr noundef nonnull align 8 dereferenceable(8) %5) #38
  %14 = load ptr, ptr %5, align 8, !tbaa !89
  %.not.i = icmp eq ptr %14, null
  br i1 %.not.i, label %.thread25, label %15, !prof !92

15:                                               ; preds = %13
  %16 = getelementptr inbounds nuw i8, ptr %14, i64 1
  %17 = load i8, ptr %16, align 1, !tbaa !93, !range !98, !noundef !99
  %18 = trunc nuw i8 %17 to i1
  br i1 %18, label %.thread25, label %19

19:                                               ; preds = %15
  call void @_ZN5arrow6Status11DeleteStateEv(ptr noundef nonnull align 8 dereferenceable(8) %5) #38
  br label %.thread25

.thread25:                                        ; preds = %19, %15, %13
  call void @llvm.lifetime.end.p0(i64 8, ptr nonnull %5) #38
  br label %26

20:                                               ; preds = %.lr.ph
  %21 = getelementptr inbounds i8, ptr %.01031, i64 %8
  %22 = add nsw i64 %8, %.02030
  br label %23

23:                                               ; preds = %9, %20
  %.2 = phi i64 [ %22, %20 ], [ %.02030, %9 ]
  %.1 = phi ptr [ %21, %20 ], [ %.01031, %9 ]
  %24 = icmp slt i64 %.2, %3
  br i1 %24, label %.lr.ph, label %.thread

.thread:                                          ; preds = %23, %.lr.ph, %4
  %.020.lcssa = phi i64 [ 0, %4 ], [ %.02030, %.lr.ph ], [ %.2, %23 ]
  store ptr null, ptr %0, align 8, !tbaa !89
  %25 = getelementptr inbounds nuw i8, ptr %0, i64 8
  store i64 %.020.lcssa, ptr %25, align 8, !tbaa !9
  br label %26

26:                                               ; preds = %.thread25, %.thread
  ret void
}